target datalayout = "e-m:e-p270:32:32-p271:32:32-p272:64:64-i64:64-i128:128-f80:128-n8:16:32:64-S128"
target triple = "x86_64-pc-linux-gnu"

%"struct.std::_Rb_tree_header" = type { %"struct.std::_Rb_tree_node_base", i64 }
%"struct.std::_Rb_tree_node_base" = type { i32, ptr, ptr, ptr }
%"class.SubCircuit::Graph" = type { i8, %"class.std::map", %"class.std::vector", %"class.std::vector.3" }
%"class.std::map" = type { %"class.std::_Rb_tree" }
%"class.std::_Rb_tree" = type { %"struct.std::_Rb_tree<std::__cxx11::basic_string<char>, std::pair<const std::__cxx11::basic_string<char>, int>, std::_Select1st<std::pair<const std::__cxx11::basic_string<char>, int>>, std::less<std::__cxx11::basic_string<char>>>::_Rb_tree_impl" }
%"struct.std::_Rb_tree<std::__cxx11::basic_string<char>, std::pair<const std::__cxx11::basic_string<char>, int>, std::_Select1st<std::pair<const std::__cxx11::basic_string<char>, int>>, std::less<std::__cxx11::basic_string<char>>>::_Rb_tree_impl" = type { [8 x i8], %"struct.std::_Rb_tree_header" }
%"class.std::vector" = type { %"struct.std::_Vector_base" }
%"struct.std::_Vector_base" = type { %"struct.std::_Vector_base<SubCircuit::Graph::Node, std::allocator<SubCircuit::Graph::Node>>::_Vector_impl" }
%"struct.std::_Vector_base<SubCircuit::Graph::Node, std::allocator<SubCircuit::Graph::Node>>::_Vector_impl" = type { %"struct.std::_Vector_base<SubCircuit::Graph::Node, std::allocator<SubCircuit::Graph::Node>>::_Vector_impl_data" }
%"struct.std::_Vector_base<SubCircuit::Graph::Node, std::allocator<SubCircuit::Graph::Node>>::_Vector_impl_data" = type { ptr, ptr, ptr }
%"class.std::vector.3" = type { %"struct.std::_Vector_base.4" }
%"struct.std::_Vector_base.4" = type { %"struct.std::_Vector_base<SubCircuit::Graph::Edge, std::allocator<SubCircuit::Graph::Edge>>::_Vector_impl" }
%"struct.std::_Vector_base<SubCircuit::Graph::Edge, std::allocator<SubCircuit::Graph::Edge>>::_Vector_impl" = type { %"struct.std::_Vector_base<SubCircuit::Graph::Edge, std::allocator<SubCircuit::Graph::Edge>>::_Vector_impl_data" }
%"struct.std::_Vector_base<SubCircuit::Graph::Edge, std::allocator<SubCircuit::Graph::Edge>>::_Vector_impl_data" = type { ptr, ptr, ptr }
%"struct.SubCircuit::Graph::Node" = type <{ %"class.std::__cxx11::basic_string", %"class.std::__cxx11::basic_string", %"class.std::map", %"class.std::vector.22", ptr, i8, [7 x i8] }>
%"class.std::__cxx11::basic_string" = type { %"struct.std::__cxx11::basic_string<char>::_Alloc_hider", i64, %union.anon }
%"struct.std::__cxx11::basic_string<char>::_Alloc_hider" = type { ptr }
%union.anon = type { i64, [8 x i8] }
%"class.std::vector.22" = type { %"struct.std::_Vector_base.23" }
%"struct.std::_Vector_base.23" = type { %"struct.std::_Vector_base<SubCircuit::Graph::Port, std::allocator<SubCircuit::Graph::Port>>::_Vector_impl" }
%"struct.std::_Vector_base<SubCircuit::Graph::Port, std::allocator<SubCircuit::Graph::Port>>::_Vector_impl" = type { %"struct.std::_Vector_base<SubCircuit::Graph::Port, std::allocator<SubCircuit::Graph::Port>>::_Vector_impl_data" }
%"struct.std::_Vector_base<SubCircuit::Graph::Port, std::allocator<SubCircuit::Graph::Port>>::_Vector_impl_data" = type { ptr, ptr, ptr }
%"struct.SubCircuit::Graph::Port" = type { %"class.std::__cxx11::basic_string", i32, %"class.std::vector.27" }
%"class.std::vector.27" = type { %"struct.std::_Vector_base.28" }
%"struct.std::_Vector_base.28" = type { %"struct.std::_Vector_base<SubCircuit::Graph::PortBit, std::allocator<SubCircuit::Graph::PortBit>>::_Vector_impl" }
%"struct.std::_Vector_base<SubCircuit::Graph::PortBit, std::allocator<SubCircuit::Graph::PortBit>>::_Vector_impl" = type { %"struct.std::_Vector_base<SubCircuit::Graph::PortBit, std::allocator<SubCircuit::Graph::PortBit>>::_Vector_impl_data" }
%"struct.std::_Vector_base<SubCircuit::Graph::PortBit, std::allocator<SubCircuit::Graph::PortBit>>::_Vector_impl_data" = type { ptr, ptr, ptr }
%"struct.SubCircuit::Graph::PortBit" = type { i32 }
%"struct.SubCircuit::Graph::Edge" = type <{ %"class.std::set", i32, i8, [3 x i8] }>
%"class.std::set" = type { %"class.std::_Rb_tree.33" }
%"class.std::_Rb_tree.33" = type { %"struct.std::_Rb_tree<SubCircuit::Graph::BitRef, SubCircuit::Graph::BitRef, std::_Identity<SubCircuit::Graph::BitRef>, std::less<SubCircuit::Graph::BitRef>>::_Rb_tree_impl" }
%"struct.std::_Rb_tree<SubCircuit::Graph::BitRef, SubCircuit::Graph::BitRef, std::_Identity<SubCircuit::Graph::BitRef>, std::less<SubCircuit::Graph::BitRef>>::_Rb_tree_impl" = type { [8 x i8], %"struct.std::_Rb_tree_header" }

; Function Attrs: mustprogress nounwind uwtable
define linkonce_odr noundef nonnull align 8 dereferenceable(53) ptr @_ZNSt6vectorIN10SubCircuit5Graph4EdgeESaIS2_EEixEm(ptr noundef nonnull align 8 dereferenceable(24) %0, i64 noundef %1) #5 comdat align 2 {
  %3 = alloca ptr, align 8
  %4 = alloca i64, align 8
  store ptr %0, ptr %3, align 8, !tbaa !78
  store i64 %1, ptr %4, align 8, !tbaa !89
  %5 = load ptr, ptr %3, align 8
  %6 = getelementptr inbounds nuw %"struct.std::_Vector_base.4", ptr %5, i32 0, i32 0
  %7 = getelementptr inbounds nuw %"struct.std::_Vector_base<SubCircuit::Graph::Edge, std::allocator<SubCircuit::Graph::Edge>>::_Vector_impl_data", ptr %6, i32 0, i32 0
  %8 = load ptr, ptr %7, align 8, !tbaa !103
  %9 = load i64, ptr %4, align 8, !tbaa !89
  %10 = getelementptr inbounds nuw %"struct.SubCircuit::Graph::Edge", ptr %8, i64 %9
  ret ptr %10
}

; Function Attrs: mustprogress nounwind uwtable
define linkonce_odr noundef nonnull align 4 dereferenceable(4) ptr @_ZNSt6vectorIN10SubCircuit5Graph7PortBitESaIS2_EEixEm(ptr noundef nonnull align 8 dereferenceable(24) %0, i64 noundef %1) #5 comdat align 2 {
  %3 = alloca ptr, align 8
  %4 = alloca i64, align 8
  store ptr %0, ptr %3, align 8, !tbaa !52
  store i64 %1, ptr %4, align 8, !tbaa !89
  %5 = load ptr, ptr %3, align 8
  %6 = getelementptr inbounds nuw %"struct.std::_Vector_base.28", ptr %5, i32 0, i32 0
  %7 = getelementptr inbounds nuw %"struct.std::_Vector_base<SubCircuit::Graph::PortBit, std::allocator<SubCircuit::Graph::PortBit>>::_Vector_impl_data", ptr %6, i32 0, i32 0
  %8 = load ptr, ptr %7, align 8, !tbaa !141
  %9 = load i64, ptr %4, align 8, !tbaa !89
  %10 = getelementptr inbounds nuw %"struct.SubCircuit::Graph::PortBit", ptr %8, i64 %9
  ret ptr %10
}

; Function Attrs: mustprogress nounwind uwtable
define linkonce_odr noundef nonnull align 8 dereferenceable(64) ptr @_ZNSt6vectorIN10SubCircuit5Graph4PortESaIS2_EEixEm(ptr noundef nonnull align 8 dereferenceable(24) %0, i64 noundef %1) #5 comdat align 2 {
  %3 = alloca ptr, align 8
  %4 = alloca i64, align 8
  store ptr %0, ptr %3, align 8, !tbaa !48
  store i64 %1, ptr %4, align 8, !tbaa !89
  %5 = load ptr, ptr %3, align 8
  %6 = getelementptr inbounds nuw %"struct.std::_Vector_base.23", ptr %5, i32 0, i32 0
  %7 = getelementptr inbounds nuw %"struct.std::_Vector_base<SubCircuit::Graph::Port, std::allocator<SubCircuit::Graph::Port>>::_Vector_impl_data", ptr %6, i32 0, i32 0
  %8 = load ptr, ptr %7, align 8, !tbaa !140
  %9 = load i64, ptr %4, align 8, !tbaa !89
  %10 = getelementptr inbounds nuw %"struct.SubCircuit::Graph::Port", ptr %8, i64 %9
  ret ptr %10
}

; Function Attrs: mustprogress nounwind uwtable
define linkonce_odr noundef nonnull align 8 dereferenceable(145) ptr @_ZNSt6vectorIN10SubCircuit5Graph4NodeESaIS2_EEixEm(ptr noundef nonnull align 8 dereferenceable(24) %0, i64 noundef %1) #5 comdat align 2 {
  %3 = alloca ptr, align 8
  %4 = alloca i64, align 8
  store ptr %0, ptr %3, align 8, !tbaa !76
  store i64 %1, ptr %4, align 8, !tbaa !89
  %5 = load ptr, ptr %3, align 8
  %6 = getelementptr inbounds nuw %"struct.std::_Vector_base", ptr %5, i32 0, i32 0
  %7 = getelementptr inbounds nuw %"struct.std::_Vector_base<SubCircuit::Graph::Node, std::allocator<SubCircuit::Graph::Node>>::_Vector_impl_data", ptr %6, i32 0, i32 0
  %8 = load ptr, ptr %7, align 8, !tbaa !94
  %9 = load i64, ptr %4, align 8, !tbaa !89
  %10 = getelementptr inbounds nuw %"struct.SubCircuit::Graph::Node", ptr %8, i64 %9
  ret ptr %10
}

; Function Attrs: mustprogress uwtable
define void @_ZN10SubCircuit5Graph14createConstantENSt7__cxx1112basic_stringIcSt11char_traitsIcESaIcEEES6_ii(ptr noundef nonnull align 8 dereferenceable(104) %0, ptr noundef %1, ptr noundef %2, i32 noundef %3, i32 noundef %4) #4 align 2 {
  %6 = alloca ptr, align 8
  %7 = alloca ptr, align 8
  %8 = alloca ptr, align 8
  %9 = alloca i32, align 4
  %10 = alloca i32, align 4
  %11 = alloca i32, align 4
  %12 = alloca ptr, align 8
  %13 = alloca i32, align 4
  %14 = alloca ptr, align 8
  %15 = alloca i32, align 4
  store ptr %0, ptr %6, align 8, !tbaa !6
  store ptr %1, ptr %7, align 8, !tbaa !88
  store ptr %2, ptr %8, align 8, !tbaa !88
  store i32 %3, ptr %9, align 4, !tbaa !38
  store i32 %4, ptr %10, align 4, !tbaa !38
  %16 = load ptr, ptr %6, align 8
  call void @llvm.lifetime.start.p0(i64 4, ptr %11) #3
  %17 = getelementptr inbounds nuw %"class.SubCircuit::Graph", ptr %16, i32 0, i32 1
  %18 = call noundef nonnull align 4 dereferenceable(4) ptr @_ZNSt3mapINSt7__cxx1112basic_stringIcSt11char_traitsIcESaIcEEEiSt4lessIS5_ESaISt4pairIKS5_iEEEixERS9_(ptr noundef nonnull align 8 dereferenceable(48) %17, ptr noundef nonnull align 8 dereferenceable(32) %1)
  %19 = load i32, ptr %18, align 4, !tbaa !38
  store i32 %19, ptr %11, align 4, !tbaa !38
  call void @llvm.lifetime.start.p0(i64 8, ptr %12) #3
  %20 = getelementptr inbounds nuw %"class.SubCircuit::Graph", ptr %16, i32 0, i32 2
  %21 = load i32, ptr %11, align 4, !tbaa !38
  %22 = sext i32 %21 to i64
  %23 = call noundef nonnull align 8 dereferenceable(145) ptr @_ZNSt6vectorIN10SubCircuit5Graph4NodeESaIS2_EEixEm(ptr noundef nonnull align 8 dereferenceable(24) %20, i64 noundef %22) #3
  store ptr %23, ptr %12, align 8, !tbaa !109
  call void @llvm.lifetime.start.p0(i64 4, ptr %13) #3
  %24 = load ptr, ptr %12, align 8, !tbaa !109
  %25 = getelementptr inbounds nuw %"struct.SubCircuit::Graph::Node", ptr %24, i32 0, i32 2
  %26 = call noundef nonnull align 4 dereferenceable(4) ptr @_ZNSt3mapINSt7__cxx1112basic_stringIcSt11char_traitsIcESaIcEEEiSt4lessIS5_ESaISt4pairIKS5_iEEEixERS9_(ptr noundef nonnull align 8 dereferenceable(48) %25, ptr noundef nonnull align 8 dereferenceable(32) %2)
  %27 = load i32, ptr %26, align 4, !tbaa !38
  store i32 %27, ptr %13, align 4, !tbaa !38
  call void @llvm.lifetime.start.p0(i64 8, ptr %14) #3
  %28 = load ptr, ptr %12, align 8, !tbaa !109
  %29 = getelementptr inbounds nuw %"struct.SubCircuit::Graph::Node", ptr %28, i32 0, i32 3
  %30 = load i32, ptr %13, align 4, !tbaa !38
  %31 = sext i32 %30 to i64
  %32 = call noundef nonnull align 8 dereferenceable(64) ptr @_ZNSt6vectorIN10SubCircuit5Graph4PortESaIS2_EEixEm(ptr noundef nonnull align 8 dereferenceable(24) %29, i64 noundef %31) #3
  store ptr %32, ptr %14, align 8, !tbaa !50
  call void @llvm.lifetime.start.p0(i64 4, ptr %15) #3
  %33 = load ptr, ptr %14, align 8, !tbaa !50
  %34 = getelementptr inbounds nuw %"struct.SubCircuit::Graph::Port", ptr %33, i32 0, i32 2
  %35 = load i32, ptr %9, align 4, !tbaa !38
  %36 = sext i32 %35 to i64
  %37 = call noundef nonnull align 4 dereferenceable(4) ptr @_ZNSt6vectorIN10SubCircuit5Graph7PortBitESaIS2_EEixEm(ptr noundef nonnull align 8 dereferenceable(24) %34, i64 noundef %36) #3
  %38 = getelementptr inbounds nuw %"struct.SubCircuit::Graph::PortBit", ptr %37, i32 0, i32 0
  %39 = load i32, ptr %38, align 4, !tbaa !72
  store i32 %39, ptr %15, align 4, !tbaa !38
  %40 = load i32, ptr %10, align 4, !tbaa !38
  %41 = getelementptr inbounds nuw %"class.SubCircuit::Graph", ptr %16, i32 0, i32 3
  %42 = load i32, ptr %15, align 4, !tbaa !38
  %43 = sext i32 %42 to i64
  %44 = call noundef nonnull align 8 dereferenceable(53) ptr @_ZNSt6vectorIN10SubCircuit5Graph4EdgeESaIS2_EEixEm(ptr noundef nonnull align 8 dereferenceable(24) %41, i64 noundef %43) #3
  %45 = getelementptr inbounds nuw %"struct.SubCircuit::Graph::Edge", ptr %44, i32 0, i32 1
  store i32 %40, ptr %45, align 8, !tbaa !64
  call void @llvm.lifetime.end.p0(i64 4, ptr %15) #3
  call void @llvm.lifetime.end.p0(i64 8, ptr %14) #3
  call void @llvm.lifetime.end.p0(i64 4, ptr %13) #3
  call void @llvm.lifetime.end.p0(i64 8, ptr %12) #3
  call void @llvm.lifetime.end.p0(i64 4, ptr %11) #3
  ret void
}