; Function Attrs: mustprogress uwtable
define void @_ZN10SubCircuit5Graph14createConstantENSt7__cxx1112basic_stringIcSt11char_traitsIcESaIcEEES6_ii(ptr noundef nonnull align 8 dereferenceable(104) %0, ptr noundef nonnull %1, ptr noundef %2, i32 noundef %3, i32 noundef %4) local_unnamed_addr #3 align 2 {
  %6 = getelementptr inbounds nuw i8, ptr %0, i64 8
  %7 = tail call noundef nonnull align 4 dereferenceable(4) ptr @_ZNSt3mapINSt7__cxx1112basic_stringIcSt11char_traitsIcESaIcEEEiSt4lessIS5_ESaISt4pairIKS5_iEEEixERS9_(ptr noundef nonnull align 8 dereferenceable(48) %6, ptr noundef nonnull align 8 dereferenceable(32) %1)
  %8 = load i32, ptr %7, align 4, !tbaa !43
  %9 = getelementptr inbounds nuw i8, ptr %0, i64 56
  %10 = sext i32 %8 to i64
  %11 = load ptr, ptr %9, align 8, !tbaa !52
  %12 = getelementptr inbounds nuw %"struct.SubCircuit::Graph::Node", ptr %11, i64 %10
  %13 = getelementptr inbounds nuw i8, ptr %12, i64 64
  %14 = tail call noundef nonnull align 4 dereferenceable(4) ptr @_ZNSt3mapINSt7__cxx1112basic_stringIcSt11char_traitsIcESaIcEEEiSt4lessIS5_ESaISt4pairIKS5_iEEEixERS9_(ptr noundef nonnull align 8 dereferenceable(48) %13, ptr noundef nonnull align 8 dereferenceable(32) %2)
  %15 = load i32, ptr %14, align 4, !tbaa !43
  %16 = getelementptr inbounds nuw i8, ptr %12, i64 112
  %17 = sext i32 %15 to i64
  %18 = load ptr, ptr %16, align 8, !tbaa !93
  %19 = getelementptr inbounds nuw %"struct.SubCircuit::Graph::Port", ptr %18, i64 %17, i32 2
  %20 = sext i32 %3 to i64
  %21 = load ptr, ptr %19, align 8, !tbaa !104
  %22 = getelementptr inbounds nuw %"struct.SubCircuit::Graph::PortBit", ptr %21, i64 %20
  %23 = load i32, ptr %22, align 4, !tbaa !78
  %24 = getelementptr inbounds nuw i8, ptr %0, i64 80
  %25 = sext i32 %23 to i64
  %26 = load ptr, ptr %24, align 8, !tbaa !48
  %27 = getelementptr inbounds nuw %"struct.SubCircuit::Graph::Edge", ptr %26, i64 %25, i32 1
  store i32 %4, ptr %27, align 8, !tbaa !63
  ret void
}